target datalayout = "e-m:e-p270:32:32-p271:32:32-p272:64:64-i64:64-i128:128-f80:128-n8:16:32:64-S128"
target triple = "x86_64-pc-linux-gnu"

%struct.Vec_Int_t_ = type { i32, i32, ptr }
%struct.Gia_Man_t_ = type { ptr, ptr, i32, i32, i32, i32, ptr, ptr, i32, i32, i32, ptr, ptr, %struct.Vec_Int_t_, %struct.Vec_Int_t_, i32, i32, i32, %struct.Vec_Int_t_, ptr, ptr, ptr, i32, i32, i32, i32, ptr, ptr, ptr, ptr, ptr, i32, i32, ptr, i32, ptr, ptr, ptr, ptr, ptr, ptr, ptr, ptr, ptr, ptr, ptr, ptr, ptr, ptr, ptr, ptr, ptr, ptr, %struct.Vec_Int_t_, %struct.Vec_Int_t_, ptr, ptr, ptr, ptr, ptr, ptr, ptr, ptr, ptr, ptr, ptr, ptr, ptr, ptr, ptr, ptr, ptr, ptr, ptr, ptr, ptr, i32, float, float, ptr, ptr, i32, ptr, ptr, ptr, ptr, ptr, ptr, ptr, ptr, ptr, ptr, ptr, ptr, ptr, ptr, ptr, i64, i64, ptr, ptr, i32, i32, i32, i32, i32, i32, i32, i32, i32, i32, i32, i32, ptr, ptr, ptr, ptr, ptr, ptr, ptr, ptr, i32, i32, i32, ptr, i32, i32, ptr, ptr, ptr, ptr, ptr, ptr, i32, i32, ptr, %struct.Vec_Int_t_, %struct.Vec_Int_t_, %struct.Vec_Int_t_, ptr, ptr, ptr }

; Function Attrs: nounwind uwtable
define internal i32 @Vec_IntSize(ptr noundef %0) #0 {
  %2 = alloca ptr, align 8
  store ptr %0, ptr %2, align 8
  %3 = load ptr, ptr %2, align 8
  %4 = getelementptr inbounds %struct.Vec_Int_t_, ptr %3, i32 0, i32 1
  %5 = load i32, ptr %4, align 4
  ret i32 %5
}

; Function Attrs: nounwind uwtable
define internal i32 @Gia_ManCiNum(ptr noundef %0) #0 {
  %2 = alloca ptr, align 8
  store ptr %0, ptr %2, align 8
  %3 = load ptr, ptr %2, align 8
  %4 = getelementptr inbounds %struct.Gia_Man_t_, ptr %3, i32 0, i32 11
  %5 = load ptr, ptr %4, align 8
  %6 = call i32 @Vec_IntSize(ptr noundef %5)
  ret i32 %6
}

; Function Attrs: nounwind uwtable
define ptr @Acb_NtkDeriveMiterCnfInter(ptr noundef %0, i32 noundef %1, i32 noundef %2) #0 {
  %4 = alloca ptr, align 8
  %5 = alloca i32, align 4
  %6 = alloca i32, align 4
  %7 = alloca ptr, align 8
  %8 = alloca ptr, align 8
  %9 = alloca i32, align 4
  store ptr %0, ptr %4, align 8
  store i32 %1, ptr %5, align 4
  store i32 %2, ptr %6, align 4
  %10 = load ptr, ptr %4, align 8
  %11 = call ptr @Gia_ManDup(ptr noundef %10)
  store ptr %11, ptr %8, align 8
  store i32 0, ptr %9, align 4
  br label %12

12:                                               ; preds = %29, %3
  %13 = load i32, ptr %9, align 4
  %14 = load i32, ptr %5, align 4
  %15 = icmp slt i32 %13, %14
  br i1 %15, label %16, label %32

16:                                               ; preds = %12
  %17 = load ptr, ptr %8, align 8
  store ptr %17, ptr %4, align 8
  %18 = load ptr, ptr %8, align 8
  %19 = call i32 @Gia_ManCiNum(ptr noundef %18)
  %20 = load i32, ptr %6, align 4
  %21 = sub nsw i32 %19, %20
  %22 = load i32, ptr %9, align 4
  %23 = add nsw i32 %21, %22
  %24 = call ptr @Gia_ManDupUniv(ptr noundef %17, i32 noundef %23)
  store ptr %24, ptr %8, align 8
  %25 = load ptr, ptr %4, align 8
  call void @Gia_ManStop(ptr noundef %25)
  %26 = load ptr, ptr %8, align 8
  store ptr %26, ptr %4, align 8
  %27 = call ptr @Acb_NtkEcoSynthesize(ptr noundef %26)
  store ptr %27, ptr %8, align 8
  %28 = load ptr, ptr %4, align 8
  call void @Gia_ManStop(ptr noundef %28)
  br label %29

29:                                               ; preds = %16
  %30 = load i32, ptr %9, align 4
  %31 = add nsw i32 %30, 1
  store i32 %31, ptr %9, align 4
  br label %12, !llvm.loop !197

32:                                               ; preds = %12
  %33 = load ptr, ptr %8, align 8
  %34 = load ptr, ptr %8, align 8
  %35 = call i32 @Gia_ManCiNum(ptr noundef %34)
  %36 = load i32, ptr %6, align 4
  %37 = sub nsw i32 %35, %36
  %38 = load i32, ptr %5, align 4
  %39 = add nsw i32 %37, %38
  %40 = call ptr @Gia_ManDupCofactorVar(ptr noundef %33, i32 noundef %39, i32 noundef 0)
  store ptr %40, ptr %7, align 8
  %41 = load ptr, ptr %8, align 8
  call void @Gia_ManStop(ptr noundef %41)
  %42 = load ptr, ptr %7, align 8
  store ptr %42, ptr %4, align 8
  %43 = call ptr @Acb_NtkEcoSynthesize(ptr noundef %42)
  store ptr %43, ptr %7, align 8
  %44 = load ptr, ptr %4, align 8
  call void @Gia_ManStop(ptr noundef %44)
  %45 = load ptr, ptr %7, align 8
  store ptr %45, ptr %4, align 8
  %46 = load i32, ptr %6, align 4
  %47 = call ptr @Gia_ManDupRemovePis(ptr noundef %45, i32 noundef %46)
  store ptr %47, ptr %7, align 8
  %48 = load ptr, ptr %4, align 8
  call void @Gia_ManStop(ptr noundef %48)
  %49 = load ptr, ptr %7, align 8
  ret ptr %49
}