; Function Attrs: nounwind uwtable
define ptr @Acb_NtkDeriveMiterCnfInter(ptr noundef %0, i32 noundef %1, i32 noundef %2) local_unnamed_addr #0 {
  %4 = tail call ptr @Gia_ManDup(ptr noundef %0) #31
  %5 = icmp sgt i32 %1, 0
  br i1 %5, label %.lr.ph, label %._crit_edge

.lr.ph:                                           ; preds = %3, %.lr.ph
  %.025 = phi i32 [ %12, %.lr.ph ], [ 0, %3 ]
  %.02124 = phi ptr [ %11, %.lr.ph ], [ %4, %3 ]
  %6 = getelementptr i8, ptr %.02124, i64 64
  %.021.val23 = load ptr, ptr %6, align 8
  %7 = getelementptr i8, ptr %.021.val23, i64 4
  %.021.val23.val = load i32, ptr %7, align 4
  %8 = sub i32 %.025, %2
  %9 = add i32 %8, %.021.val23.val
  %10 = tail call ptr @Gia_ManDupUniv(ptr noundef %.02124, i32 noundef %9) #31
  tail call void @Gia_ManStop(ptr noundef %.02124) #31
  %11 = tail call ptr @Acb_NtkEcoSynthesize(ptr noundef %10)
  tail call void @Gia_ManStop(ptr noundef %10) #31
  %12 = add nuw nsw i32 %.025, 1
  %exitcond.not = icmp eq i32 %12, %1
  br i1 %exitcond.not, label %._crit_edge, label %.lr.ph, !llvm.loop !181

._crit_edge:                                      ; preds = %.lr.ph, %3
  %.021.lcssa = phi ptr [ %4, %3 ], [ %11, %.lr.ph ]
  %13 = getelementptr i8, ptr %.021.lcssa, i64 64
  %.021.val = load ptr, ptr %13, align 8
  %14 = getelementptr i8, ptr %.021.val, i64 4
  %.021.val.val = load i32, ptr %14, align 4
  %15 = sub i32 %1, %2
  %16 = add i32 %15, %.021.val.val
  %17 = tail call ptr @Gia_ManDupCofactorVar(ptr noundef %.021.lcssa, i32 noundef %16, i32 noundef 0) #31
  tail call void @Gia_ManStop(ptr noundef %.021.lcssa) #31
  %18 = tail call ptr @Acb_NtkEcoSynthesize(ptr noundef %17)
  tail call void @Gia_ManStop(ptr noundef %17) #31
  %19 = tail call ptr @Gia_ManDupRemovePis(ptr noundef %18, i32 noundef %2) #31
  tail call void @Gia_ManStop(ptr noundef %18) #31
  ret ptr %19
}